target datalayout = "e-m:e-p270:32:32-p271:32:32-p272:64:64-i64:64-i128:128-f80:128-n8:16:32:64-S128"
target triple = "x86_64-pc-linux-gnu"

%union.TValue = type { i64 }
%struct.GCRef = type { i64 }
%struct.MRef = type { i64 }
%struct.GChead = type { %struct.GCRef, i8, i8, i8, i8, %struct.GCRef, %struct.GCRef, %struct.GCRef }
%struct.GCfuncC = type { %struct.GCRef, i8, i8, i8, i8, %struct.GCRef, %struct.GCRef, %struct.MRef, ptr, [1 x %union.TValue] }
%struct.GCfuncL = type { %struct.GCRef, i8, i8, i8, i8, %struct.GCRef, %struct.GCRef, %struct.MRef, [1 x %struct.GCRef] }

; Function Attrs: nounwind uwtable
define internal void @gc_traverse_func(ptr noundef %0, ptr noundef %1) #0 {
  %3 = alloca ptr, align 8
  %4 = alloca ptr, align 8
  %5 = alloca i32, align 4
  %6 = alloca i32, align 4
  store ptr %0, ptr %3, align 8, !tbaa !4
  store ptr %1, ptr %4, align 8, !tbaa !120
  %7 = load ptr, ptr %4, align 8, !tbaa !120
  %8 = getelementptr inbounds nuw %struct.GCfuncC, ptr %7, i32 0, i32 5
  %9 = getelementptr inbounds nuw %struct.GCRef, ptr %8, i32 0, i32 0
  %10 = load i64, ptr %9, align 8, !tbaa !30
  %11 = inttoptr i64 %10 to ptr
  %12 = getelementptr inbounds nuw %struct.GChead, ptr %11, i32 0, i32 1
  %13 = load i8, ptr %12, align 8, !tbaa !30
  %14 = zext i8 %13 to i32
  %15 = and i32 %14, 3
  %16 = icmp ne i32 %15, 0
  br i1 %16, label %17, label %24

17:                                               ; preds = %2
  %18 = load ptr, ptr %3, align 8, !tbaa !4
  %19 = load ptr, ptr %4, align 8, !tbaa !120
  %20 = getelementptr inbounds nuw %struct.GCfuncC, ptr %19, i32 0, i32 5
  %21 = getelementptr inbounds nuw %struct.GCRef, ptr %20, i32 0, i32 0
  %22 = load i64, ptr %21, align 8, !tbaa !30
  %23 = inttoptr i64 %22 to ptr
  call void @gc_mark(ptr noundef %18, ptr noundef %23)
  br label %24

24:                                               ; preds = %17, %2
  %25 = load ptr, ptr %4, align 8, !tbaa !120
  %26 = getelementptr inbounds nuw %struct.GCfuncC, ptr %25, i32 0, i32 3
  %27 = load i8, ptr %26, align 2, !tbaa !30
  %28 = zext i8 %27 to i32
  %29 = icmp eq i32 %28, 0
  br i1 %29, label %30, label %87

30:                                               ; preds = %24
  call void @llvm.lifetime.start.p0(i64 4, ptr %5) #7
  %31 = load ptr, ptr %4, align 8, !tbaa !120
  %32 = getelementptr inbounds nuw %struct.GCfuncL, ptr %31, i32 0, i32 7
  %33 = getelementptr inbounds nuw %struct.MRef, ptr %32, i32 0, i32 0
  %34 = load i64, ptr %33, align 8, !tbaa !30
  %35 = inttoptr i64 %34 to ptr
  %36 = getelementptr inbounds i8, ptr %35, i64 -104
  %37 = getelementptr inbounds nuw %struct.GChead, ptr %36, i32 0, i32 1
  %38 = load i8, ptr %37, align 8, !tbaa !30
  %39 = zext i8 %38 to i32
  %40 = and i32 %39, 3
  %41 = icmp ne i32 %40, 0
  br i1 %41, label %42, label %50

42:                                               ; preds = %30
  %43 = load ptr, ptr %3, align 8, !tbaa !4
  %44 = load ptr, ptr %4, align 8, !tbaa !120
  %45 = getelementptr inbounds nuw %struct.GCfuncL, ptr %44, i32 0, i32 7
  %46 = getelementptr inbounds nuw %struct.MRef, ptr %45, i32 0, i32 0
  %47 = load i64, ptr %46, align 8, !tbaa !30
  %48 = inttoptr i64 %47 to ptr
  %49 = getelementptr inbounds i8, ptr %48, i64 -104
  call void @gc_mark(ptr noundef %43, ptr noundef %49)
  br label %50

50:                                               ; preds = %42, %30
  store i32 0, ptr %5, align 4, !tbaa !9
  br label %51

51:                                               ; preds = %83, %50
  %52 = load i32, ptr %5, align 4, !tbaa !9
  %53 = load ptr, ptr %4, align 8, !tbaa !120
  %54 = getelementptr inbounds nuw %struct.GCfuncL, ptr %53, i32 0, i32 4
  %55 = load i8, ptr %54, align 1, !tbaa !30
  %56 = zext i8 %55 to i32
  %57 = icmp ult i32 %52, %56
  br i1 %57, label %58, label %86

58:                                               ; preds = %51
  %59 = load ptr, ptr %4, align 8, !tbaa !120
  %60 = getelementptr inbounds nuw %struct.GCfuncL, ptr %59, i32 0, i32 8
  %61 = load i32, ptr %5, align 4, !tbaa !9
  %62 = zext i32 %61 to i64
  %63 = getelementptr inbounds nuw [1 x %struct.GCRef], ptr %60, i64 0, i64 %62
  %64 = getelementptr inbounds nuw %struct.GCRef, ptr %63, i32 0, i32 0
  %65 = load i64, ptr %64, align 8, !tbaa !30
  %66 = inttoptr i64 %65 to ptr
  %67 = getelementptr inbounds nuw %struct.GChead, ptr %66, i32 0, i32 1
  %68 = load i8, ptr %67, align 8, !tbaa !30
  %69 = zext i8 %68 to i32
  %70 = and i32 %69, 3
  %71 = icmp ne i32 %70, 0
  br i1 %71, label %72, label %82

72:                                               ; preds = %58
  %73 = load ptr, ptr %3, align 8, !tbaa !4
  %74 = load ptr, ptr %4, align 8, !tbaa !120
  %75 = getelementptr inbounds nuw %struct.GCfuncL, ptr %74, i32 0, i32 8
  %76 = load i32, ptr %5, align 4, !tbaa !9
  %77 = zext i32 %76 to i64
  %78 = getelementptr inbounds nuw [1 x %struct.GCRef], ptr %75, i64 0, i64 %77
  %79 = getelementptr inbounds nuw %struct.GCRef, ptr %78, i32 0, i32 0
  %80 = load i64, ptr %79, align 8, !tbaa !30
  %81 = inttoptr i64 %80 to ptr
  call void @gc_mark(ptr noundef %73, ptr noundef %81)
  br label %82

82:                                               ; preds = %72, %58
  br label %83

83:                                               ; preds = %82
  %84 = load i32, ptr %5, align 4, !tbaa !9
  %85 = add i32 %84, 1
  store i32 %85, ptr %5, align 4, !tbaa !9
  br label %51, !llvm.loop !138

86:                                               ; preds = %51
  call void @llvm.lifetime.end.p0(i64 4, ptr %5) #7
  br label %137

87:                                               ; preds = %24
  call void @llvm.lifetime.start.p0(i64 4, ptr %6) #7
  store i32 0, ptr %6, align 4, !tbaa !9
  br label %88

88:                                               ; preds = %133, %87
  %89 = load i32, ptr %6, align 4, !tbaa !9
  %90 = load ptr, ptr %4, align 8, !tbaa !120
  %91 = getelementptr inbounds nuw %struct.GCfuncC, ptr %90, i32 0, i32 4
  %92 = load i8, ptr %91, align 1, !tbaa !30
  %93 = zext i8 %92 to i32
  %94 = icmp ult i32 %89, %93
  br i1 %94, label %95, label %136

95:                                               ; preds = %88
  %96 = load ptr, ptr %4, align 8, !tbaa !120
  %97 = getelementptr inbounds nuw %struct.GCfuncC, ptr %96, i32 0, i32 9
  %98 = load i32, ptr %6, align 4, !tbaa !9
  %99 = zext i32 %98 to i64
  %100 = getelementptr inbounds nuw [1 x %union.TValue], ptr %97, i64 0, i64 %99
  %101 = load i64, ptr %100, align 8, !tbaa !30
  %102 = ashr i64 %101, 47
  %103 = trunc i64 %102 to i32
  %104 = sub i32 %103, -4
  %105 = icmp ugt i32 %104, -10
  br i1 %105, label %106, label %132

106:                                              ; preds = %95
  %107 = load ptr, ptr %4, align 8, !tbaa !120
  %108 = getelementptr inbounds nuw %struct.GCfuncC, ptr %107, i32 0, i32 9
  %109 = load i32, ptr %6, align 4, !tbaa !9
  %110 = zext i32 %109 to i64
  %111 = getelementptr inbounds nuw [1 x %union.TValue], ptr %108, i64 0, i64 %110
  %112 = getelementptr inbounds nuw %struct.GCRef, ptr %111, i32 0, i32 0
  %113 = load i64, ptr %112, align 8, !tbaa !30
  %114 = and i64 %113, 140737488355327
  %115 = inttoptr i64 %114 to ptr
  %116 = getelementptr inbounds nuw %struct.GChead, ptr %115, i32 0, i32 1
  %117 = load i8, ptr %116, align 8, !tbaa !30
  %118 = zext i8 %117 to i32
  %119 = and i32 %118, 3
  %120 = icmp ne i32 %119, 0
  br i1 %120, label %121, label %132

121:                                              ; preds = %106
  %122 = load ptr, ptr %3, align 8, !tbaa !4
  %123 = load ptr, ptr %4, align 8, !tbaa !120
  %124 = getelementptr inbounds nuw %struct.GCfuncC, ptr %123, i32 0, i32 9
  %125 = load i32, ptr %6, align 4, !tbaa !9
  %126 = zext i32 %125 to i64
  %127 = getelementptr inbounds nuw [1 x %union.TValue], ptr %124, i64 0, i64 %126
  %128 = getelementptr inbounds nuw %struct.GCRef, ptr %127, i32 0, i32 0
  %129 = load i64, ptr %128, align 8, !tbaa !30
  %130 = and i64 %129, 140737488355327
  %131 = inttoptr i64 %130 to ptr
  call void @gc_mark(ptr noundef %122, ptr noundef %131)
  br label %132

132:                                              ; preds = %121, %106, %95
  br label %133

133:                                              ; preds = %132
  %134 = load i32, ptr %6, align 4, !tbaa !9
  %135 = add i32 %134, 1
  store i32 %135, ptr %6, align 4, !tbaa !9
  br label %88, !llvm.loop !139

136:                                              ; preds = %88
  call void @llvm.lifetime.end.p0(i64 4, ptr %6) #7
  br label %137

137:                                              ; preds = %136, %86
  ret void
}