; Function Attrs: nofree nosync nounwind memory(readwrite, inaccessiblemem: none) uwtable
define internal fastcc void @gc_traverse_func(ptr noundef %0, ptr noundef readonly captures(none) %1) unnamed_addr #3 {
  %3 = getelementptr inbounds nuw i8, ptr %1, i64 16
  %4 = load i64, ptr %3, align 8, !tbaa !23
  %5 = inttoptr i64 %4 to ptr
  %6 = getelementptr inbounds nuw i8, ptr %5, i64 8
  %7 = load i8, ptr %6, align 8, !tbaa !23
  %8 = and i8 %7, 3
  %.not = icmp eq i8 %8, 0
  br i1 %.not, label %10, label %9

9:                                                ; preds = %2
  tail call fastcc void @gc_mark(ptr noundef %0, ptr noundef nonnull %5)
  br label %10

10:                                               ; preds = %9, %2
  %11 = getelementptr inbounds nuw i8, ptr %1, i64 10
  %12 = load i8, ptr %11, align 2, !tbaa !23
  %13 = icmp eq i8 %12, 0
  br i1 %13, label %17, label %.preheader

.preheader:                                       ; preds = %10
  %14 = getelementptr inbounds nuw i8, ptr %1, i64 11
  %15 = load i8, ptr %14, align 1, !tbaa !23
  %.not32 = icmp eq i8 %15, 0
  br i1 %.not32, label %.loopexit, label %.lr.ph

.lr.ph:                                           ; preds = %.preheader
  %16 = getelementptr inbounds nuw i8, ptr %1, i64 48
  br label %43

17:                                               ; preds = %10
  %18 = getelementptr inbounds nuw i8, ptr %1, i64 32
  %19 = load i64, ptr %18, align 8, !tbaa !23
  %20 = inttoptr i64 %19 to ptr
  %21 = getelementptr inbounds i8, ptr %20, i64 -96
  %22 = load i8, ptr %21, align 8, !tbaa !23
  %23 = and i8 %22, 3
  %.not26 = icmp eq i8 %23, 0
  br i1 %.not26, label %26, label %24

24:                                               ; preds = %17
  %25 = getelementptr inbounds i8, ptr %20, i64 -104
  tail call fastcc void @gc_mark(ptr noundef %0, ptr noundef nonnull %25)
  br label %26

26:                                               ; preds = %24, %17
  %27 = getelementptr inbounds nuw i8, ptr %1, i64 11
  %28 = load i8, ptr %27, align 1, !tbaa !23
  %.not33 = icmp eq i8 %28, 0
  br i1 %.not33, label %.loopexit, label %.lr.ph31

.lr.ph31:                                         ; preds = %26
  %29 = getelementptr inbounds nuw i8, ptr %1, i64 40
  br label %30

30:                                               ; preds = %.lr.ph31, %39
  %31 = phi i8 [ %28, %.lr.ph31 ], [ %40, %39 ]
  %indvars.iv36 = phi i64 [ 0, %.lr.ph31 ], [ %indvars.iv.next37, %39 ]
  %32 = getelementptr inbounds nuw [1 x %struct.GCRef], ptr %29, i64 0, i64 %indvars.iv36
  %33 = load i64, ptr %32, align 8, !tbaa !23
  %34 = inttoptr i64 %33 to ptr
  %35 = getelementptr inbounds nuw i8, ptr %34, i64 8
  %36 = load i8, ptr %35, align 8, !tbaa !23
  %37 = and i8 %36, 3
  %.not27 = icmp eq i8 %37, 0
  br i1 %.not27, label %39, label %38

38:                                               ; preds = %30
  tail call fastcc void @gc_mark(ptr noundef %0, ptr noundef nonnull %34)
  %.pre39 = load i8, ptr %27, align 1, !tbaa !23
  br label %39

39:                                               ; preds = %30, %38
  %40 = phi i8 [ %31, %30 ], [ %.pre39, %38 ]
  %indvars.iv.next37 = add nuw nsw i64 %indvars.iv36, 1
  %41 = zext i8 %40 to i64
  %42 = icmp samesign ult i64 %indvars.iv.next37, %41
  br i1 %42, label %30, label %.loopexit, !llvm.loop !122

43:                                               ; preds = %.lr.ph, %58
  %44 = phi i8 [ %15, %.lr.ph ], [ %59, %58 ]
  %indvars.iv = phi i64 [ 0, %.lr.ph ], [ %indvars.iv.next, %58 ]
  %45 = getelementptr inbounds nuw [1 x %union.TValue], ptr %16, i64 0, i64 %indvars.iv
  %46 = load i64, ptr %45, align 8, !tbaa !23
  %47 = ashr i64 %46, 47
  %48 = trunc nsw i64 %47 to i32
  %49 = add nsw i32 %48, 13
  %50 = icmp ult i32 %49, 9
  br i1 %50, label %51, label %58

51:                                               ; preds = %43
  %52 = and i64 %46, 140737488355327
  %53 = inttoptr i64 %52 to ptr
  %54 = getelementptr inbounds nuw i8, ptr %53, i64 8
  %55 = load i8, ptr %54, align 8, !tbaa !23
  %56 = and i8 %55, 3
  %.not25 = icmp eq i8 %56, 0
  br i1 %.not25, label %58, label %57

57:                                               ; preds = %51
  tail call fastcc void @gc_mark(ptr noundef %0, ptr noundef nonnull %53)
  %.pre = load i8, ptr %14, align 1, !tbaa !23
  br label %58

58:                                               ; preds = %43, %51, %57
  %59 = phi i8 [ %44, %43 ], [ %44, %51 ], [ %.pre, %57 ]
  %indvars.iv.next = add nuw nsw i64 %indvars.iv, 1
  %60 = zext i8 %59 to i64
  %61 = icmp samesign ult i64 %indvars.iv.next, %60
  br i1 %61, label %43, label %.loopexit, !llvm.loop !123

.loopexit:                                        ; preds = %58, %39, %.preheader, %26
  ret void
}